(lp0
(iTechnique
Set
p1
(dp2
S'name'
p3
S'Sohn Ppae Ki'
p4
sS'level'
p5
F0.15
sS'number'
p6
I5
sS'meaning'
p7
S''
p8
sS'starts_with'
p9
g8
sS'techniques'
p10
(lp11
(iTechnique
Technique
p12
(dp13
S'similarTo'
p14
g8
sS'hyul'
p15
(lp16
sS'hints'
p17
(lp18
sg6
I1
sS'description'
p19
g8
sba(iTechnique
Technique
p20
(dp21
g14
g8
sg15
g16
sg17
g18
sg6
I2
sg19
g8
sbasba(iTechnique
Set
p22
(dp23
g3
S'Ki Bohn Soo'
p24
sg5
F0.2
sg6
I15
sg7
g8
sg9
g8
sg10
g11
sba(iTechnique
Set
p25
(dp26
g3
S'Sohn Mohk Soo'
p27
sg5
F0.25
sg6
I11
sg7
g8
sg9
g8
sg10
g11
sba(iTechnique
Set
p28
(dp29
g3
S'Eui Bohk Soo'
p30
sg5
F0.3
sg6
I13
sg7
g8
sg9
g8
sg10
g11
sba(iTechnique
Set
p31
(dp32
g3
S'Ahn Sohn Mohk Soo'
p33
sg5
F0.35
sg6
I6
sg7
g8
sg9
g8
sg10
g11
sba(iTechnique
Set
p34
(dp35
g3
S'Maek Chi Ki'
p36
sg5
F0.4
sg6
I15
sg7
g8
sg9
g8
sg10
g11
sba(iTechnique
Set
p37
(dp38
g3
S'Maek Cha Ki'
p39
sg5
F0.45
sg6
I15
sg7
g8
sg9
g8
sg10
g11
sba(iTechnique
Set
p40
(dp41
g3
S'Joo Muhk Maga Ki Bohn Soo'
p42
sg5
F0.5
sg6
I15
sg7
g8
sg9
g8
sg10
g11
sba(iTechnique
Set
p43
(dp44
g3
S'Joong Geup Sohn Mohk Soo'
p45
sg5
F0.55
sg6
I7
sg7
g8
sg9
g8
sg10
g11
sba(iTechnique
Set
p46
(dp47
g3
S'Ahp Eui Bohk Soo'
p48
sg5
F0.6
sg6
I20
sg7
g8
sg9
g8
sg10
g11
sba(iTechnique
Set
p49
(dp50
g3
S'Dee Eui Bohk Soo'
p51
sg5
F0.7
sg6
I23
sg7
S'Clothing Techniques against a grab from behind'
p52
sg9
g8
sg10
g11
sba(iTechnique
Set
p53
(dp54
g3
S'Kwan Juhl Ki'
p55
sg5
F0.7
sg6
I13
sg7
g8
sg9
g8
sg10
g11
sba(iTechnique
Set
p56
(dp57
g3
S'Too Ki'
p58
sg5
F0.7
sg6
I13
sg7
g8
sg9
g8
sg10
g11
sba(iTechnique
Set
p59
(dp60
g3
S'Mohk Joh Leu Ki'
p61
sg5
F0.7
sg6
I5
sg7
g8
sg9
g8
sg10
g11
sba(iTechnique
Set
p62
(dp63
g3
S'Bohn Too Ki'
p64
sg5
F0.7
sg6
I10
sg7
g8
sg9
g8
sg10
g11
sba(iTechnique
Set
p65
(dp66
g3
S'Yang Sohn Mohk Soo'
p67
sg5
F0.7
sg6
I15
sg7
g8
sg9
g8
sg10
g11
sba(iTechnique
Set
p68
(dp69
g3
S'Ssang Soo'
p70
sg5
F0.7
sg6
I15
sg7
g8
sg9
g8
sg10
g11
sba(iTechnique
Set
p71
(dp72
g3
S'Dahn Do Maek Ki'
p73
sg5
F0.7
sg6
I15
sg7
g8
sg9
g8
sg10
g11
sba(iTechnique
Set
p74
(dp75
g3
S'Ki Bohn Bohn'
p76
sg5
I1
sg6
I10
sg7
S'Fundamental (Freshmen) Techniques'
p77
sg9
g8
sg10
g11
sba(iTechnique
Set
p78
(dp79
g3
S'Gahk Doh Bup'
p80
sg5
I1
sg6
I10
sg7
g8
sg9
g8
sg10
g11
sba(iTechnique
Set
p81
(dp82
g3
S'Juhn Hwan Bup'
p83
sg5
I1
sg6
I10
sg7
g8
sg9
g8
sg10
g11
sba(iTechnique
Set
p84
(dp85
g3
S'Goh Geup Sohn Mohk Soo'
p86
sg5
I1
sg6
I15
sg7
g8
sg9
g8
sg10
g11
sba(iTechnique
Set
p87
(dp88
g3
S'Goh Geup Eui Bohk Soo'
p89
sg5
I1
sg6
I15
sg7
g8
sg9
g8
sg10
g11
sba(iTechnique
Set
p90
(dp91
g3
S'Jah Ki'
p92
sg5
I1
sg6
I15
sg7
g8
sg9
g8
sg10
g11
sba(iTechnique
Set
p93
(dp94
g3
S'Wah Ki'
p95
sg5
I1
sg6
I15
sg7
g8
sg9
g8
sg10
g11
sba(iTechnique
Set
p96
(dp97
g3
S'Ee In Jeh Ahp Sool'
p98
sg5
I1
sg6
I10
sg7
g8
sg9
g8
sg10
g11
sba(iTechnique
Set
p99
(dp100
g3
S'Jahp Ki'
p101
sg5
I1
sg6
I20
sg7
g8
sg9
g8
sg10
g11
sba(iTechnique
Set
p102
(dp103
g3
S'Keun Dae Ryuhn'
p104
sg5
I1
sg6
I8
sg7
S'Close-Range Sparring Techniques'
p105
sg9
g8
sg10
g11
sba(iTechnique
Set
p106
(dp107
g3
S'Johk Bahng Uh Sool'
p108
sg5
I1
sg6
I15
sg7
S'Defense Against Kicking Techniques'
p109
sg9
g8
sg10
g11
sba.